target datalayout = "e-m:e-p270:32:32-p271:32:32-p272:64:64-i64:64-i128:128-f80:128-n8:16:32:64-S128"
target triple = "x86_64-unknown-linux-gnu"

%struct.Range = type { i64, i64 }

@.str = private unnamed_addr constant [19 x i8] c"../qemu/util/log.c\00", align 1
@debug_regions = internal global ptr null, align 8
@.str.1 = private unnamed_addr constant [2 x i8] c",\00", align 1
@.str.2 = private unnamed_addr constant [2 x i8] c"-\00", align 1
@.str.3 = private unnamed_addr constant [2 x i8] c"+\00", align 1
@.str.4 = private unnamed_addr constant [3 x i8] c"..\00", align 1
@__func__.qemu_set_dfilter_ranges = private unnamed_addr constant [24 x i8] c"qemu_set_dfilter_ranges\00", align 1
@.str.5 = private unnamed_addr constant [20 x i8] c"Bad range specifier\00", align 1
@.str.6 = private unnamed_addr constant [35 x i8] c"Invalid number to the left of %.*s\00", align 1
@.str.7 = private unnamed_addr constant [36 x i8] c"Invalid number to the right of %.*s\00", align 1
@.str.8 = private unnamed_addr constant [14 x i8] c"Invalid range\00", align 1
@.str.66 = private unnamed_addr constant [23 x i8] c"!range_is_empty(range)\00", align 1
@.str.67 = private unnamed_addr constant [99 x i8] c"/home/dtcxzyw/WorkSpace/Projects/compilers/llvm-opt-benchmark/bench/qemu/qemu/include/qemu/range.h\00", align 1
@__PRETTY_FUNCTION__.range_set_bounds = private unnamed_addr constant [51 x i8] c"void range_set_bounds(Range *, uint64_t, uint64_t)\00", align 1
@.str.68 = private unnamed_addr constant [57 x i8] c"range->lob <= range->upb || range->lob == range->upb + 1\00", align 1
@__PRETTY_FUNCTION__.range_invariant = private unnamed_addr constant [36 x i8] c"void range_invariant(const Range *)\00", align 1

; Function Attrs: nounwind sspstrong uwtable
define internal void @range_invariant(ptr noundef %range) #0 {
entry:
  %range.addr = alloca ptr, align 8
  store ptr %range, ptr %range.addr, align 8
  %0 = load ptr, ptr %range.addr, align 8
  %lob = getelementptr inbounds %struct.Range, ptr %0, i32 0, i32 0
  %1 = load i64, ptr %lob, align 8
  %2 = load ptr, ptr %range.addr, align 8
  %upb = getelementptr inbounds %struct.Range, ptr %2, i32 0, i32 1
  %3 = load i64, ptr %upb, align 8
  %cmp = icmp ule i64 %1, %3
  br i1 %cmp, label %if.then, label %lor.lhs.false

lor.lhs.false:                                    ; preds = %entry
  %4 = load ptr, ptr %range.addr, align 8
  %lob1 = getelementptr inbounds %struct.Range, ptr %4, i32 0, i32 0
  %5 = load i64, ptr %lob1, align 8
  %6 = load ptr, ptr %range.addr, align 8
  %upb2 = getelementptr inbounds %struct.Range, ptr %6, i32 0, i32 1
  %7 = load i64, ptr %upb2, align 8
  %add = add i64 %7, 1
  %cmp3 = icmp eq i64 %5, %add
  br i1 %cmp3, label %if.then, label %if.else

if.then:                                          ; preds = %lor.lhs.false, %entry
  br label %if.end

if.else:                                          ; preds = %lor.lhs.false
  call void @__assert_fail(ptr noundef @.str.68, ptr noundef @.str.67, i32 noundef 41, ptr noundef @__PRETTY_FUNCTION__.range_invariant) #13
  unreachable

if.end:                                           ; preds = %if.then
  ret void
}

; Function Attrs: nounwind sspstrong uwtable
define internal zeroext i1 @range_is_empty(ptr noundef %range) #0 {
entry:
  %range.addr = alloca ptr, align 8
  store ptr %range, ptr %range.addr, align 8
  %0 = load ptr, ptr %range.addr, align 8
  call void @range_invariant(ptr noundef %0)
  %1 = load ptr, ptr %range.addr, align 8
  %lob = getelementptr inbounds %struct.Range, ptr %1, i32 0, i32 0
  %2 = load i64, ptr %lob, align 8
  %3 = load ptr, ptr %range.addr, align 8
  %upb = getelementptr inbounds %struct.Range, ptr %3, i32 0, i32 1
  %4 = load i64, ptr %upb, align 8
  %cmp = icmp ugt i64 %2, %4
  ret i1 %cmp
}

; Function Attrs: nounwind sspstrong uwtable
define internal void @range_set_bounds(ptr noundef %range, i64 noundef %lob, i64 noundef %upb) #0 {
entry:
  %range.addr = alloca ptr, align 8
  %lob.addr = alloca i64, align 8
  %upb.addr = alloca i64, align 8
  store ptr %range, ptr %range.addr, align 8
  store i64 %lob, ptr %lob.addr, align 8
  store i64 %upb, ptr %upb.addr, align 8
  %0 = load i64, ptr %lob.addr, align 8
  %1 = load ptr, ptr %range.addr, align 8
  %lob1 = getelementptr inbounds %struct.Range, ptr %1, i32 0, i32 0
  store i64 %0, ptr %lob1, align 8
  %2 = load i64, ptr %upb.addr, align 8
  %3 = load ptr, ptr %range.addr, align 8
  %upb2 = getelementptr inbounds %struct.Range, ptr %3, i32 0, i32 1
  store i64 %2, ptr %upb2, align 8
  %4 = load ptr, ptr %range.addr, align 8
  %call = call zeroext i1 @range_is_empty(ptr noundef %4)
  br i1 %call, label %if.else, label %if.then

if.then:                                          ; preds = %entry
  br label %if.end

if.else:                                          ; preds = %entry
  call void @__assert_fail(ptr noundef @.str.66, ptr noundef @.str.67, i32 noundef 77, ptr noundef @__PRETTY_FUNCTION__.range_set_bounds) #13
  unreachable

if.end:                                           ; preds = %if.then
  ret void
}

; Function Attrs: nounwind sspstrong uwtable
define dso_local void @qemu_set_dfilter_ranges(ptr noundef %filter_spec, ptr noundef %errp) #0 {
entry:
  %filter_spec.addr = alloca ptr, align 8
  %errp.addr = alloca ptr, align 8
  %ranges = alloca ptr, align 8
  %i = alloca i32, align 4
  %r = alloca ptr, align 8
  %range_op = alloca ptr, align 8
  %r2 = alloca ptr, align 8
  %e = alloca ptr, align 8
  %r1val = alloca i64, align 8
  %r2val = alloca i64, align 8
  %lob = alloca i64, align 8
  %upb = alloca i64, align 8
  %range = alloca %struct.Range, align 8
  store ptr %filter_spec, ptr %filter_spec.addr, align 8
  store ptr %errp, ptr %errp.addr, align 8
  %0 = load ptr, ptr %filter_spec.addr, align 8
  %call = call ptr @g_strsplit(ptr noundef %0, ptr noundef @.str.1, i32 noundef 0)
  store ptr %call, ptr %ranges, align 8
  %1 = load ptr, ptr @debug_regions, align 8
  %tobool = icmp ne ptr %1, null
  br i1 %tobool, label %if.then, label %if.end

if.then:                                          ; preds = %entry
  %2 = load ptr, ptr @debug_regions, align 8
  call void @g_array_unref(ptr noundef %2)
  store ptr null, ptr @debug_regions, align 8
  br label %if.end

if.end:                                           ; preds = %if.then, %entry
  %3 = load ptr, ptr %ranges, align 8
  %call1 = call i32 @g_strv_length(ptr noundef %3)
  %call2 = call ptr @g_array_sized_new(i32 noundef 0, i32 noundef 0, i32 noundef 16, i32 noundef %call1)
  store ptr %call2, ptr @debug_regions, align 8
  store i32 0, ptr %i, align 4
  br label %for.cond

for.cond:                                         ; preds = %for.inc, %if.end
  %4 = load ptr, ptr %ranges, align 8
  %5 = load i32, ptr %i, align 4
  %idxprom = sext i32 %5 to i64
  %arrayidx = getelementptr ptr, ptr %4, i64 %idxprom
  %6 = load ptr, ptr %arrayidx, align 8
  %tobool3 = icmp ne ptr %6, null
  br i1 %tobool3, label %for.body, label %for.end

for.body:                                         ; preds = %for.cond
  %7 = load ptr, ptr %ranges, align 8
  %8 = load i32, ptr %i, align 4
  %idxprom4 = sext i32 %8 to i64
  %arrayidx5 = getelementptr ptr, ptr %7, i64 %idxprom4
  %9 = load ptr, ptr %arrayidx5, align 8
  store ptr %9, ptr %r, align 8
  %10 = load ptr, ptr %r, align 8
  %call6 = call ptr @strstr(ptr noundef %10, ptr noundef @.str.2) #15
  store ptr %call6, ptr %range_op, align 8
  %11 = load ptr, ptr %range_op, align 8
  %tobool7 = icmp ne ptr %11, null
  br i1 %tobool7, label %cond.true, label %cond.false

cond.true:                                        ; preds = %for.body
  %12 = load ptr, ptr %range_op, align 8
  %add.ptr = getelementptr i8, ptr %12, i64 1
  br label %cond.end

cond.false:                                       ; preds = %for.body
  br label %cond.end

cond.end:                                         ; preds = %cond.false, %cond.true
  %cond = phi ptr [ %add.ptr, %cond.true ], [ null, %cond.false ]
  store ptr %cond, ptr %r2, align 8
  %13 = load ptr, ptr %range_op, align 8
  %tobool8 = icmp ne ptr %13, null
  br i1 %tobool8, label %if.end17, label %if.then9

if.then9:                                         ; preds = %cond.end
  %14 = load ptr, ptr %r, align 8
  %call10 = call ptr @strstr(ptr noundef %14, ptr noundef @.str.3) #15
  store ptr %call10, ptr %range_op, align 8
  %15 = load ptr, ptr %range_op, align 8
  %tobool11 = icmp ne ptr %15, null
  br i1 %tobool11, label %cond.true12, label %cond.false14

cond.true12:                                      ; preds = %if.then9
  %16 = load ptr, ptr %range_op, align 8
  %add.ptr13 = getelementptr i8, ptr %16, i64 1
  br label %cond.end15

cond.false14:                                     ; preds = %if.then9
  br label %cond.end15

cond.end15:                                       ; preds = %cond.false14, %cond.true12
  %cond16 = phi ptr [ %add.ptr13, %cond.true12 ], [ null, %cond.false14 ]
  store ptr %cond16, ptr %r2, align 8
  br label %if.end17

if.end17:                                         ; preds = %cond.end15, %cond.end
  %17 = load ptr, ptr %range_op, align 8
  %tobool18 = icmp ne ptr %17, null
  br i1 %tobool18, label %if.end27, label %if.then19

if.then19:                                        ; preds = %if.end17
  %18 = load ptr, ptr %r, align 8
  %call20 = call ptr @strstr(ptr noundef %18, ptr noundef @.str.4) #15
  store ptr %call20, ptr %range_op, align 8
  %19 = load ptr, ptr %range_op, align 8
  %tobool21 = icmp ne ptr %19, null
  br i1 %tobool21, label %cond.true22, label %cond.false24

cond.true22:                                      ; preds = %if.then19
  %20 = load ptr, ptr %range_op, align 8
  %add.ptr23 = getelementptr i8, ptr %20, i64 2
  br label %cond.end25

cond.false24:                                     ; preds = %if.then19
  br label %cond.end25

cond.end25:                                       ; preds = %cond.false24, %cond.true22
  %cond26 = phi ptr [ %add.ptr23, %cond.true22 ], [ null, %cond.false24 ]
  store ptr %cond26, ptr %r2, align 8
  br label %if.end27

if.end27:                                         ; preds = %cond.end25, %if.end17
  %21 = load ptr, ptr %range_op, align 8
  %tobool28 = icmp ne ptr %21, null
  br i1 %tobool28, label %if.end30, label %if.then29

if.then29:                                        ; preds = %if.end27
  %22 = load ptr, ptr %errp.addr, align 8
  call void (ptr, ptr, i32, ptr, ptr, ...) @error_setg_internal(ptr noundef %22, ptr noundef @.str, i32 noundef 415, ptr noundef @__func__.qemu_set_dfilter_ranges, ptr noundef @.str.5)
  br label %out

if.end30:                                         ; preds = %if.end27
  %23 = load ptr, ptr %r, align 8
  %call31 = call i32 @qemu_strtou64(ptr noundef %23, ptr noundef %e, i32 noundef 0, ptr noundef %r1val)
  %tobool32 = icmp ne i32 %call31, 0
  br i1 %tobool32, label %if.then33, label %lor.lhs.false

lor.lhs.false:                                    ; preds = %if.end30
  %24 = load ptr, ptr %e, align 8
  %25 = load ptr, ptr %range_op, align 8
  %cmp = icmp ne ptr %24, %25
  br i1 %cmp, label %if.then33, label %if.end34

if.then33:                                        ; preds = %lor.lhs.false, %if.end30
  %26 = load ptr, ptr %errp.addr, align 8
  %27 = load ptr, ptr %r2, align 8
  %28 = load ptr, ptr %range_op, align 8
  %sub.ptr.lhs.cast = ptrtoint ptr %27 to i64
  %sub.ptr.rhs.cast = ptrtoint ptr %28 to i64
  %sub.ptr.sub = sub i64 %sub.ptr.lhs.cast, %sub.ptr.rhs.cast
  %conv = trunc i64 %sub.ptr.sub to i32
  %29 = load ptr, ptr %range_op, align 8
  call void (ptr, ptr, i32, ptr, ptr, ...) @error_setg_internal(ptr noundef %26, ptr noundef @.str, i32 noundef 422, ptr noundef @__func__.qemu_set_dfilter_ranges, ptr noundef @.str.6, i32 noundef %conv, ptr noundef %29)
  br label %out

if.end34:                                         ; preds = %lor.lhs.false
  %30 = load ptr, ptr %r2, align 8
  %call35 = call i32 @qemu_strtou64(ptr noundef %30, ptr noundef null, i32 noundef 0, ptr noundef %r2val)
  %tobool36 = icmp ne i32 %call35, 0
  br i1 %tobool36, label %if.then37, label %if.end42

if.then37:                                        ; preds = %if.end34
  %31 = load ptr, ptr %errp.addr, align 8
  %32 = load ptr, ptr %r2, align 8
  %33 = load ptr, ptr %range_op, align 8
  %sub.ptr.lhs.cast38 = ptrtoint ptr %32 to i64
  %sub.ptr.rhs.cast39 = ptrtoint ptr %33 to i64
  %sub.ptr.sub40 = sub i64 %sub.ptr.lhs.cast38, %sub.ptr.rhs.cast39
  %conv41 = trunc i64 %sub.ptr.sub40 to i32
  %34 = load ptr, ptr %range_op, align 8
  call void (ptr, ptr, i32, ptr, ptr, ...) @error_setg_internal(ptr noundef %31, ptr noundef @.str, i32 noundef 427, ptr noundef @__func__.qemu_set_dfilter_ranges, ptr noundef @.str.7, i32 noundef %conv41, ptr noundef %34)
  br label %out

if.end42:                                         ; preds = %if.end34
  %35 = load ptr, ptr %range_op, align 8
  %36 = load i8, ptr %35, align 1
  %conv43 = sext i8 %36 to i32
  switch i32 %conv43, label %sw.default [
    i32 43, label %sw.bb
    i32 45, label %sw.bb44
    i32 46, label %sw.bb47
  ]

sw.bb:                                            ; preds = %if.end42
  %37 = load i64, ptr %r1val, align 8
  store i64 %37, ptr %lob, align 8
  %38 = load i64, ptr %r1val, align 8
  %39 = load i64, ptr %r2val, align 8
  %add = add i64 %38, %39
  %sub = sub i64 %add, 1
  store i64 %sub, ptr %upb, align 8
  br label %sw.epilog

sw.bb44:                                          ; preds = %if.end42
  %40 = load i64, ptr %r1val, align 8
  store i64 %40, ptr %upb, align 8
  %41 = load i64, ptr %r1val, align 8
  %42 = load i64, ptr %r2val, align 8
  %sub45 = sub i64 %42, 1
  %sub46 = sub i64 %41, %sub45
  store i64 %sub46, ptr %lob, align 8
  br label %sw.epilog

sw.bb47:                                          ; preds = %if.end42
  %43 = load i64, ptr %r1val, align 8
  store i64 %43, ptr %lob, align 8
  %44 = load i64, ptr %r2val, align 8
  store i64 %44, ptr %upb, align 8
  br label %sw.epilog

sw.default:                                       ; preds = %if.end42
  br label %do.body

do.body:                                          ; preds = %sw.default
  call void @g_assertion_message_expr(ptr noundef null, ptr noundef @.str, i32 noundef 445, ptr noundef @__func__.qemu_set_dfilter_ranges, ptr noundef null) #10
  unreachable

do.end:                                           ; No predecessors!
  br label %sw.epilog

sw.epilog:                                        ; preds = %do.end, %sw.bb47, %sw.bb44, %sw.bb
  %45 = load i64, ptr %lob, align 8
  %46 = load i64, ptr %upb, align 8
  %cmp48 = icmp ugt i64 %45, %46
  br i1 %cmp48, label %if.then50, label %if.end51

if.then50:                                        ; preds = %sw.epilog
  %47 = load ptr, ptr %errp.addr, align 8
  call void (ptr, ptr, i32, ptr, ptr, ...) @error_setg_internal(ptr noundef %47, ptr noundef @.str, i32 noundef 448, ptr noundef @__func__.qemu_set_dfilter_ranges, ptr noundef @.str.8)
  br label %out

if.end51:                                         ; preds = %sw.epilog
  %48 = load i64, ptr %lob, align 8
  %49 = load i64, ptr %upb, align 8
  call void @range_set_bounds(ptr noundef %range, i64 noundef %48, i64 noundef %49)
  %50 = load ptr, ptr @debug_regions, align 8
  %call52 = call ptr @g_array_append_vals(ptr noundef %50, ptr noundef %range, i32 noundef 1)
  br label %for.inc

for.inc:                                          ; preds = %if.end51
  %51 = load i32, ptr %i, align 4
  %inc = add i32 %51, 1
  store i32 %inc, ptr %i, align 4
  br label %for.cond, !llvm.loop !9

for.end:                                          ; preds = %for.cond
  br label %out

out:                                              ; preds = %for.end, %if.then50, %if.then37, %if.then33, %if.then29
  %52 = load ptr, ptr %ranges, align 8
  call void @g_strfreev(ptr noundef %52)
  ret void
}