; Function Attrs: nounwind sspstrong uwtable
define dso_local void @qemu_set_dfilter_ranges(ptr noundef %filter_spec, ptr noundef %errp) local_unnamed_addr #2 {
entry:
  %e = alloca ptr, align 8
  %r1val = alloca i64, align 8
  %r2val = alloca i64, align 8
  %range = alloca %struct.Range, align 8
  %call = tail call ptr @g_strsplit(ptr noundef %filter_spec, ptr noundef nonnull @.str.1, i32 noundef 0) #15
  %0 = load ptr, ptr @debug_regions, align 8
  %tobool.not = icmp eq ptr %0, null
  br i1 %tobool.not, label %if.end, label %if.then

if.then:                                          ; preds = %entry
  tail call void @g_array_unref(ptr noundef nonnull %0) #15
  store ptr null, ptr @debug_regions, align 8
  br label %if.end

if.end:                                           ; preds = %if.then, %entry
  %call1 = tail call i32 @g_strv_length(ptr noundef %call) #15
  %call2 = tail call ptr @g_array_sized_new(i32 noundef 0, i32 noundef 0, i32 noundef 16, i32 noundef %call1) #15
  store ptr %call2, ptr @debug_regions, align 8
  %1 = load ptr, ptr %call, align 8
  %tobool3.not46 = icmp eq ptr %1, null
  br i1 %tobool3.not46, label %out, label %for.body.lr.ph

for.body.lr.ph:                                   ; preds = %if.end
  %upb2.i = getelementptr inbounds nuw i8, ptr %range, i64 8
  br label %for.body

for.body:                                         ; preds = %for.body.lr.ph, %range_set_bounds.exit
  %2 = phi ptr [ %1, %for.body.lr.ph ], [ %12, %range_set_bounds.exit ]
  %i.047 = phi i32 [ 0, %for.body.lr.ph ], [ %inc, %range_set_bounds.exit ]
  %strchr = call ptr @strchr(ptr nonnull dereferenceable(1) %2, i32 45)
  %tobool7.not = icmp eq ptr %strchr, null
  %add.ptr = getelementptr i8, ptr %strchr, i64 1
  br i1 %tobool7.not, label %if.end17, label %if.end30

if.end17:                                         ; preds = %for.body
  %strchr31 = call ptr @strchr(ptr nonnull dereferenceable(1) %2, i32 43)
  %tobool11.not = icmp eq ptr %strchr31, null
  %add.ptr13 = getelementptr i8, ptr %strchr31, i64 1
  br i1 %tobool11.not, label %if.end27, label %if.end30

if.end27:                                         ; preds = %if.end17
  %call20 = call ptr @strstr(ptr noundef nonnull dereferenceable(1) %2, ptr noundef nonnull dereferenceable(1) @.str.4) #18
  %tobool21.not = icmp eq ptr %call20, null
  %add.ptr23 = getelementptr i8, ptr %call20, i64 2
  br i1 %tobool21.not, label %if.then29, label %if.end30

if.then29:                                        ; preds = %if.end27
  call void (ptr, ptr, i32, ptr, ptr, ...) @error_setg_internal(ptr noundef %errp, ptr noundef nonnull @.str, i32 noundef 415, ptr noundef nonnull @__func__.qemu_set_dfilter_ranges, ptr noundef nonnull @.str.5) #15
  br label %out

if.end30:                                         ; preds = %for.body, %if.end17, %if.end27
  %r2.139 = phi ptr [ %add.ptr23, %if.end27 ], [ %add.ptr13, %if.end17 ], [ %add.ptr, %for.body ]
  %range_op.138 = phi ptr [ %call20, %if.end27 ], [ %strchr31, %if.end17 ], [ %strchr, %for.body ]
  %call31 = call i32 @qemu_strtou64(ptr noundef nonnull %2, ptr noundef nonnull %e, i32 noundef 0, ptr noundef nonnull %r1val) #15
  %tobool32.not = icmp eq i32 %call31, 0
  %3 = load ptr, ptr %e, align 8
  %cmp.not = icmp eq ptr %3, %range_op.138
  %or.cond = select i1 %tobool32.not, i1 %cmp.not, i1 false
  br i1 %or.cond, label %if.end34, label %if.then33

if.then33:                                        ; preds = %if.end30
  %sub.ptr.lhs.cast = ptrtoint ptr %r2.139 to i64
  %sub.ptr.rhs.cast = ptrtoint ptr %range_op.138 to i64
  %sub.ptr.sub = sub i64 %sub.ptr.lhs.cast, %sub.ptr.rhs.cast
  %conv = trunc i64 %sub.ptr.sub to i32
  call void (ptr, ptr, i32, ptr, ptr, ...) @error_setg_internal(ptr noundef %errp, ptr noundef nonnull @.str, i32 noundef 422, ptr noundef nonnull @__func__.qemu_set_dfilter_ranges, ptr noundef nonnull @.str.6, i32 noundef %conv, ptr noundef nonnull %range_op.138) #15
  br label %out

if.end34:                                         ; preds = %if.end30
  %call35 = call i32 @qemu_strtou64(ptr noundef %r2.139, ptr noundef null, i32 noundef 0, ptr noundef nonnull %r2val) #15
  %tobool36.not = icmp eq i32 %call35, 0
  br i1 %tobool36.not, label %if.end42, label %if.then37

if.then37:                                        ; preds = %if.end34
  %sub.ptr.lhs.cast38 = ptrtoint ptr %r2.139 to i64
  %sub.ptr.rhs.cast39 = ptrtoint ptr %range_op.138 to i64
  %sub.ptr.sub40 = sub i64 %sub.ptr.lhs.cast38, %sub.ptr.rhs.cast39
  %conv41 = trunc i64 %sub.ptr.sub40 to i32
  call void (ptr, ptr, i32, ptr, ptr, ...) @error_setg_internal(ptr noundef %errp, ptr noundef nonnull @.str, i32 noundef 427, ptr noundef nonnull @__func__.qemu_set_dfilter_ranges, ptr noundef nonnull @.str.7, i32 noundef %conv41, ptr noundef nonnull %range_op.138) #15
  br label %out

if.end42:                                         ; preds = %if.end34
  %4 = load i8, ptr %range_op.138, align 1
  switch i8 %4, label %do.body [
    i8 43, label %sw.bb
    i8 45, label %sw.bb44
    i8 46, label %sw.bb47
  ]

sw.bb:                                            ; preds = %if.end42
  %5 = load i64, ptr %r1val, align 8
  %6 = load i64, ptr %r2val, align 8
  %add = add i64 %5, -1
  %sub = add i64 %add, %6
  br label %sw.epilog

sw.bb44:                                          ; preds = %if.end42
  %7 = load i64, ptr %r1val, align 8
  %8 = load i64, ptr %r2val, align 8
  %sub45.neg = add i64 %7, 1
  %sub46 = sub i64 %sub45.neg, %8
  br label %sw.epilog

sw.bb47:                                          ; preds = %if.end42
  %9 = load i64, ptr %r1val, align 8
  %10 = load i64, ptr %r2val, align 8
  br label %sw.epilog

do.body:                                          ; preds = %if.end42
  call void @g_assertion_message_expr(ptr noundef null, ptr noundef nonnull @.str, i32 noundef 445, ptr noundef nonnull @__func__.qemu_set_dfilter_ranges, ptr noundef null) #17
  unreachable

sw.epilog:                                        ; preds = %sw.bb47, %sw.bb44, %sw.bb
  %lob.0 = phi i64 [ %9, %sw.bb47 ], [ %sub46, %sw.bb44 ], [ %5, %sw.bb ]
  %upb.0 = phi i64 [ %10, %sw.bb47 ], [ %7, %sw.bb44 ], [ %sub, %sw.bb ]
  %cmp48 = icmp ugt i64 %lob.0, %upb.0
  br i1 %cmp48, label %if.then50, label %range_set_bounds.exit

if.then50:                                        ; preds = %sw.epilog
  call void (ptr, ptr, i32, ptr, ptr, ...) @error_setg_internal(ptr noundef %errp, ptr noundef nonnull @.str, i32 noundef 448, ptr noundef nonnull @__func__.qemu_set_dfilter_ranges, ptr noundef nonnull @.str.8) #15
  br label %out

range_set_bounds.exit:                            ; preds = %sw.epilog
  store i64 %lob.0, ptr %range, align 8
  store i64 %upb.0, ptr %upb2.i, align 8
  %11 = load ptr, ptr @debug_regions, align 8
  %call52 = call ptr @g_array_append_vals(ptr noundef %11, ptr noundef nonnull %range, i32 noundef 1) #15
  %inc = add i32 %i.047, 1
  %idxprom = sext i32 %inc to i64
  %arrayidx = getelementptr ptr, ptr %call, i64 %idxprom
  %12 = load ptr, ptr %arrayidx, align 8
  %tobool3.not = icmp eq ptr %12, null
  br i1 %tobool3.not, label %out, label %for.body, !llvm.loop !10

out:                                              ; preds = %range_set_bounds.exit, %if.end, %if.then50, %if.then37, %if.then33, %if.then29
  call void @g_strfreev(ptr noundef nonnull %call) #15
  ret void
}